(lp0
(lp1
(lp2
F0.19999999999999998
aF0.15000000000000002
aF0.0
aa(lp3
F0.5
aF0.15000000000000002
aF0.0
aa(lp4
F0.5
aF-0.5
aF0.0
aa(lp5
F0.19999999999999998
aF-0.5
aF0.0
aaa(lp6
(lp7
F0.8999999999999998
aF0.15000000000000002
aF0.0
aa(lp8
F1.1999999999999997
aF0.15000000000000002
aF0.0
aa(lp9
F1.1999999999999997
aF-0.5
aF0.0
aa(lp10
F0.8999999999999998
aF-0.5
aF0.0
aaa(lp11
(lp12
F1.25
aF0.15000000000000002
aF0.0
aa(lp13
F1.5499999999999998
aF0.15000000000000002
aF0.0
aa(lp14
F1.5499999999999998
aF-0.5
aF0.0
aa(lp15
F1.25
aF-0.5
aF0.0
aaa(lp16
(lp17
F-0.15
aF-0.1999999999999999
aF0.0
aa(lp18
F0.15
aF-0.1999999999999999
aF0.0
aa(lp19
F0.15
aF-0.8499999999999999
aF0.0
aa(lp20
F-0.15
aF-0.8499999999999999
aF0.0
aaa(lp21
(lp22
F0.5499999999999999
aF-0.1999999999999999
aF0.0
aa(lp23
F0.85
aF-0.1999999999999999
aF0.0
aa(lp24
F0.85
aF-0.8499999999999999
aF0.0
aa(lp25
F0.5499999999999999
aF-0.8499999999999999
aF0.0
aaa(lp26
(lp27
F1.6
aF-0.19999999999999998
aF0.0
aa(lp28
F1.9
aF-0.19999999999999998
aF0.0
aa(lp29
F1.9
aF-0.5
aF0.0
aa(lp30
F1.6
aF-0.5
aF0.0
aaa(lp31
(lp32
F0.19999999999999998
aF-0.5499999999999999
aF0.0
aa(lp33
F0.5
aF-0.5499999999999999
aF0.0
aa(lp34
F0.5
aF-0.85
aF0.0
aa(lp35
F0.19999999999999998
aF-0.85
aF0.0
aaa(lp36
(lp37
F0.8999999999999998
aF-0.5499999999999999
aF0.0
aa(lp38
F1.1999999999999997
aF-0.5499999999999999
aF0.0
aa(lp39
F1.1999999999999997
aF-0.85
aF0.0
aa(lp40
F0.8999999999999998
aF-0.85
aF0.0
aaa(lp41
(lp42
F1.25
aF-0.5499999999999999
aF0.0
aa(lp43
F1.5499999999999998
aF-0.5499999999999999
aF0.0
aa(lp44
F1.5499999999999998
aF-0.85
aF0.0
aa(lp45
F1.25
aF-0.85
aF0.0
aaa(lp46
(lp47
F1.6
aF-0.5499999999999999
aF0.0
aa(lp48
F1.9
aF-0.5499999999999999
aF0.0
aa(lp49
F1.9
aF-0.85
aF0.0
aa(lp50
F1.6
aF-0.85
aF0.0
aaa(lp51
(lp52
F-0.15
aF-0.8999999999999998
aF0.0
aa(lp53
F0.15
aF-0.8999999999999998
aF0.0
aa(lp54
F0.15
aF-1.1999999999999997
aF0.0
aa(lp55
F-0.15
aF-1.1999999999999997
aF0.0
aaa(lp56
(lp57
F0.19999999999999998
aF-0.8999999999999998
aF0.0
aa(lp58
F0.5
aF-0.8999999999999998
aF0.0
aa(lp59
F0.5
aF-1.1999999999999997
aF0.0
aa(lp60
F0.19999999999999998
aF-1.1999999999999997
aF0.0
aaa(lp61
(lp62
F0.5499999999999999
aF-0.8999999999999999
aF0.0
aa(lp63
F0.85
aF-0.8999999999999999
aF0.0
aa(lp64
F0.85
aF-1.5499999999999998
aF0.0
aa(lp65
F0.5499999999999999
aF-1.5499999999999998
aF0.0
aaa(lp66
(lp67
F0.8999999999999998
aF-0.8999999999999998
aF0.0
aa(lp68
F1.1999999999999997
aF-0.8999999999999998
aF0.0
aa(lp69
F1.1999999999999997
aF-1.1999999999999997
aF0.0
aa(lp70
F0.8999999999999998
aF-1.1999999999999997
aF0.0
aaa(lp71
(lp72
F1.25
aF-0.8999999999999999
aF0.0
aa(lp73
F1.5499999999999998
aF-0.8999999999999999
aF0.0
aa(lp74
F1.5499999999999998
aF-1.5499999999999998
aF0.0
aa(lp75
F1.25
aF-1.5499999999999998
aF0.0
aaa(lp76
(lp77
F-0.15
aF-1.25
aF0.0
aa(lp78
F0.15
aF-1.25
aF0.0
aa(lp79
F0.15
aF-1.5499999999999998
aF0.0
aa(lp80
F-0.15
aF-1.5499999999999998
aF0.0
aaa(lp81
(lp82
F1.6
aF-1.25
aF0.0
aa(lp83
F1.9
aF-1.25
aF0.0
aa(lp84
F1.9
aF-1.5499999999999998
aF0.0
aa(lp85
F1.6
aF-1.5499999999999998
aF0.0
aaa.