(lp0
(lp1
(lp2
F-0.15
aF0.15000000000000002
aF0.0
aa(lp3
F0.15
aF0.15000000000000002
aF0.0
aa(lp4
F0.15
aF-0.5
aF0.0
aa(lp5
F-0.15
aF-0.5
aF0.0
aaa(lp6
(lp7
F0.1999999999999999
aF0.15
aF0.0
aa(lp8
F0.8499999999999999
aF0.15
aF0.0
aa(lp9
F0.8499999999999999
aF-0.15
aF0.0
aa(lp10
F0.1999999999999999
aF-0.15
aF0.0
aaa(lp11
(lp12
F1.25
aF0.15000000000000002
aF0.0
aa(lp13
F1.5499999999999998
aF0.15000000000000002
aF0.0
aa(lp14
F1.5499999999999998
aF-0.5
aF0.0
aa(lp15
F1.25
aF-0.5
aF0.0
aaa(lp16
(lp17
F1.6
aF0.15000000000000002
aF0.0
aa(lp18
F1.9
aF0.15000000000000002
aF0.0
aa(lp19
F1.9
aF-0.5
aF0.0
aa(lp20
F1.6
aF-0.5
aF0.0
aaa(lp21
(lp22
F1.9499999999999997
aF0.15
aF0.0
aa(lp23
F2.2499999999999996
aF0.15
aF0.0
aa(lp24
F2.2499999999999996
aF-0.15
aF0.0
aa(lp25
F1.9499999999999997
aF-0.15
aF0.0
aaa(lp26
(lp27
F2.3000000000000003
aF0.15
aF0.0
aa(lp28
F2.6
aF0.15
aF0.0
aa(lp29
F2.6
aF-0.15
aF0.0
aa(lp30
F2.3000000000000003
aF-0.15
aF0.0
aaa(lp31
(lp32
F0.19999999999999998
aF-0.1999999999999999
aF0.0
aa(lp33
F0.5
aF-0.1999999999999999
aF0.0
aa(lp34
F0.5
aF-0.8499999999999999
aF0.0
aa(lp35
F0.19999999999999998
aF-0.8499999999999999
aF0.0
aaa(lp36
(lp37
F0.5499999999999999
aF-0.19999999999999998
aF0.0
aa(lp38
F0.85
aF-0.19999999999999998
aF0.0
aa(lp39
F0.85
aF-0.5
aF0.0
aa(lp40
F0.5499999999999999
aF-0.5
aF0.0
aaa(lp41
(lp42
F0.8999999999999998
aF-0.1999999999999999
aF0.0
aa(lp43
F1.1999999999999997
aF-0.1999999999999999
aF0.0
aa(lp44
F1.1999999999999997
aF-0.8499999999999999
aF0.0
aa(lp45
F0.8999999999999998
aF-0.8499999999999999
aF0.0
aaa(lp46
(lp47
F1.9499999999999995
aF-0.19999999999999998
aF0.0
aa(lp48
F2.5999999999999996
aF-0.19999999999999998
aF0.0
aa(lp49
F2.5999999999999996
aF-0.5
aF0.0
aa(lp50
F1.9499999999999995
aF-0.5
aF0.0
aaa(lp51
(lp52
F2.65
aF-0.1999999999999999
aF0.0
aa(lp53
F2.9499999999999997
aF-0.1999999999999999
aF0.0
aa(lp54
F2.9499999999999997
aF-0.8499999999999999
aF0.0
aa(lp55
F2.65
aF-0.8499999999999999
aF0.0
aaa(lp56
(lp57
F-0.15
aF-0.55
aF0.0
aa(lp58
F0.15
aF-0.55
aF0.0
aa(lp59
F0.15
aF-1.2
aF0.0
aa(lp60
F-0.15
aF-1.2
aF0.0
aaa(lp61
(lp62
F0.5499999999999999
aF-0.5499999999999999
aF0.0
aa(lp63
F0.85
aF-0.5499999999999999
aF0.0
aa(lp64
F0.85
aF-0.85
aF0.0
aa(lp65
F0.5499999999999999
aF-0.85
aF0.0
aaa(lp66
(lp67
F1.25
aF-0.5499999999999999
aF0.0
aa(lp68
F1.9
aF-0.5499999999999999
aF0.0
aa(lp69
F1.9
aF-0.85
aF0.0
aa(lp70
F1.25
aF-0.85
aF0.0
aaa(lp71
(lp72
F1.9499999999999997
aF-0.5499999999999999
aF0.0
aa(lp73
F2.2499999999999996
aF-0.5499999999999999
aF0.0
aa(lp74
F2.2499999999999996
aF-0.85
aF0.0
aa(lp75
F1.9499999999999997
aF-0.85
aF0.0
aaa(lp76
(lp77
F2.3000000000000003
aF-0.5499999999999999
aF0.0
aa(lp78
F2.6
aF-0.5499999999999999
aF0.0
aa(lp79
F2.6
aF-0.85
aF0.0
aa(lp80
F2.3000000000000003
aF-0.85
aF0.0
aaa(lp81
(lp82
F3.0
aF-0.5499999999999999
aF0.0
aa(lp83
F3.3
aF-0.5499999999999999
aF0.0
aa(lp84
F3.3
aF-0.85
aF0.0
aa(lp85
F3.0
aF-0.85
aF0.0
aaa(lp86
(lp87
F0.19999999999999998
aF-0.8999999999999998
aF0.0
aa(lp88
F0.5
aF-0.8999999999999998
aF0.0
aa(lp89
F0.5
aF-1.1999999999999997
aF0.0
aa(lp90
F0.19999999999999998
aF-1.1999999999999997
aF0.0
aaa(lp91
(lp92
F0.5499999999999999
aF-0.8999999999999998
aF0.0
aa(lp93
F0.85
aF-0.8999999999999998
aF0.0
aa(lp94
F0.85
aF-1.1999999999999997
aF0.0
aa(lp95
F0.5499999999999999
aF-1.1999999999999997
aF0.0
aaa(lp96
(lp97
F0.8999999999999998
aF-0.8999999999999998
aF0.0
aa(lp98
F1.1999999999999997
aF-0.8999999999999998
aF0.0
aa(lp99
F1.1999999999999997
aF-1.1999999999999997
aF0.0
aa(lp100
F0.8999999999999998
aF-1.1999999999999997
aF0.0
aaa(lp101
(lp102
F1.25
aF-0.8999999999999999
aF0.0
aa(lp103
F1.5499999999999998
aF-0.8999999999999999
aF0.0
aa(lp104
F1.5499999999999998
aF-1.5499999999999998
aF0.0
aa(lp105
F1.25
aF-1.5499999999999998
aF0.0
aaa(lp106
(lp107
F1.6
aF-0.8999999999999998
aF0.0
aa(lp108
F2.25
aF-0.8999999999999998
aF0.0
aa(lp109
F2.25
aF-1.1999999999999997
aF0.0
aa(lp110
F1.6
aF-1.1999999999999997
aF0.0
aaa(lp111
(lp112
F2.3
aF-0.8999999999999998
aF0.0
aa(lp113
F2.95
aF-0.8999999999999998
aF0.0
aa(lp114
F2.95
aF-1.1999999999999997
aF0.0
aa(lp115
F2.3
aF-1.1999999999999997
aF0.0
aaa(lp116
(lp117
F3.0
aF-0.8999999999999998
aF0.0
aa(lp118
F3.3
aF-0.8999999999999998
aF0.0
aa(lp119
F3.3
aF-1.1999999999999997
aF0.0
aa(lp120
F3.0
aF-1.1999999999999997
aF0.0
aaa(lp121
(lp122
F-0.15
aF-1.25
aF0.0
aa(lp123
F0.15
aF-1.25
aF0.0
aa(lp124
F0.15
aF-1.9
aF0.0
aa(lp125
F-0.15
aF-1.9
aF0.0
aaa(lp126
(lp127
F0.19999999999999998
aF-1.25
aF0.0
aa(lp128
F0.5
aF-1.25
aF0.0
aa(lp129
F0.5
aF-1.5499999999999998
aF0.0
aa(lp130
F0.19999999999999998
aF-1.5499999999999998
aF0.0
aaa(lp131
(lp132
F0.5499999999999999
aF-1.25
aF0.0
aa(lp133
F0.85
aF-1.25
aF0.0
aa(lp134
F0.85
aF-1.5499999999999998
aF0.0
aa(lp135
F0.5499999999999999
aF-1.5499999999999998
aF0.0
aaa(lp136
(lp137
F0.8999999999999998
aF-1.25
aF0.0
aa(lp138
F1.1999999999999997
aF-1.25
aF0.0
aa(lp139
F1.1999999999999997
aF-1.5499999999999998
aF0.0
aa(lp140
F0.8999999999999998
aF-1.5499999999999998
aF0.0
aaa(lp141
(lp142
F1.6
aF-1.25
aF0.0
aa(lp143
F2.25
aF-1.25
aF0.0
aa(lp144
F2.25
aF-1.5499999999999998
aF0.0
aa(lp145
F1.6
aF-1.5499999999999998
aF0.0
aaa(lp146
(lp147
F2.3
aF-1.25
aF0.0
aa(lp148
F2.95
aF-1.25
aF0.0
aa(lp149
F2.95
aF-1.5499999999999998
aF0.0
aa(lp150
F2.3
aF-1.5499999999999998
aF0.0
aaa(lp151
(lp152
F0.19999999999999998
aF-1.6
aF0.0
aa(lp153
F0.5
aF-1.6
aF0.0
aa(lp154
F0.5
aF-2.25
aF0.0
aa(lp155
F0.19999999999999998
aF-2.25
aF0.0
aaa(lp156
(lp157
F0.8999999999999998
aF-1.6
aF0.0
aa(lp158
F1.1999999999999997
aF-1.6
aF0.0
aa(lp159
F1.1999999999999997
aF-1.9
aF0.0
aa(lp160
F0.8999999999999998
aF-1.9
aF0.0
aaa(lp161
(lp162
F1.25
aF-1.6
aF0.0
aa(lp163
F1.9
aF-1.6
aF0.0
aa(lp164
F1.9
aF-1.9
aF0.0
aa(lp165
F1.25
aF-1.9
aF0.0
aaa(lp166
(lp167
F1.9499999999999997
aF-1.6
aF0.0
aa(lp168
F2.2499999999999996
aF-1.6
aF0.0
aa(lp169
F2.2499999999999996
aF-1.9
aF0.0
aa(lp170
F1.9499999999999997
aF-1.9
aF0.0
aaa(lp171
(lp172
F2.3
aF-1.6
aF0.0
aa(lp173
F2.95
aF-1.6
aF0.0
aa(lp174
F2.95
aF-1.9
aF0.0
aa(lp175
F2.3
aF-1.9
aF0.0
aaa(lp176
(lp177
F3.0
aF-1.6
aF0.0
aa(lp178
F3.3
aF-1.6
aF0.0
aa(lp179
F3.3
aF-1.9
aF0.0
aa(lp180
F3.0
aF-1.9
aF0.0
aaa(lp181
(lp182
F-0.15
aF-1.9499999999999997
aF0.0
aa(lp183
F0.15
aF-1.9499999999999997
aF0.0
aa(lp184
F0.15
aF-2.2499999999999996
aF0.0
aa(lp185
F-0.15
aF-2.2499999999999996
aF0.0
aaa(lp186
(lp187
F0.5499999999999999
aF-1.9499999999999997
aF0.0
aa(lp188
F0.85
aF-1.9499999999999997
aF0.0
aa(lp189
F0.85
aF-2.2499999999999996
aF0.0
aa(lp190
F0.5499999999999999
aF-2.2499999999999996
aF0.0
aaa(lp191
(lp192
F0.8999999999999998
aF-1.9499999999999997
aF0.0
aa(lp193
F1.1999999999999997
aF-1.9499999999999997
aF0.0
aa(lp194
F1.1999999999999997
aF-2.2499999999999996
aF0.0
aa(lp195
F0.8999999999999998
aF-2.2499999999999996
aF0.0
aaa(lp196
(lp197
F1.25
aF-1.9499999999999997
aF0.0
aa(lp198
F1.5499999999999998
aF-1.9499999999999997
aF0.0
aa(lp199
F1.5499999999999998
aF-2.2499999999999996
aF0.0
aa(lp200
F1.25
aF-2.2499999999999996
aF0.0
aaa(lp201
(lp202
F1.6
aF-1.9499999999999997
aF0.0
aa(lp203
F2.25
aF-1.9499999999999997
aF0.0
aa(lp204
F2.25
aF-2.2499999999999996
aF0.0
aa(lp205
F1.6
aF-2.2499999999999996
aF0.0
aaa(lp206
(lp207
F2.3000000000000003
aF-1.9499999999999997
aF0.0
aa(lp208
F2.6
aF-1.9499999999999997
aF0.0
aa(lp209
F2.6
aF-2.2499999999999996
aF0.0
aa(lp210
F2.3000000000000003
aF-2.2499999999999996
aF0.0
aaa(lp211
(lp212
F2.65
aF-1.9499999999999997
aF0.0
aa(lp213
F2.9499999999999997
aF-1.9499999999999997
aF0.0
aa(lp214
F2.9499999999999997
aF-2.2499999999999996
aF0.0
aa(lp215
F2.65
aF-2.2499999999999996
aF0.0
aaa(lp216
(lp217
F3.0
aF-1.9499999999999997
aF0.0
aa(lp218
F3.3
aF-1.9499999999999997
aF0.0
aa(lp219
F3.3
aF-2.2499999999999996
aF0.0
aa(lp220
F3.0
aF-2.2499999999999996
aF0.0
aaa(lp221
(lp222
F0.19999999999999998
aF-2.3000000000000003
aF0.0
aa(lp223
F0.5
aF-2.3000000000000003
aF0.0
aa(lp224
F0.5
aF-2.6
aF0.0
aa(lp225
F0.19999999999999998
aF-2.6
aF0.0
aaa(lp226
(lp227
F0.8999999999999998
aF-2.3000000000000003
aF0.0
aa(lp228
F1.1999999999999997
aF-2.3000000000000003
aF0.0
aa(lp229
F1.1999999999999997
aF-2.6
aF0.0
aa(lp230
F0.8999999999999998
aF-2.6
aF0.0
aaa(lp231
(lp232
F1.25
aF-2.3000000000000003
aF0.0
aa(lp233
F1.9
aF-2.3000000000000003
aF0.0
aa(lp234
F1.9
aF-2.6
aF0.0
aa(lp235
F1.25
aF-2.6
aF0.0
aaa(lp236
(lp237
F1.9499999999999995
aF-2.3000000000000003
aF0.0
aa(lp238
F2.5999999999999996
aF-2.3000000000000003
aF0.0
aa(lp239
F2.5999999999999996
aF-2.6
aF0.0
aa(lp240
F1.9499999999999995
aF-2.6
aF0.0
aaa(lp241
(lp242
F2.6499999999999995
aF-2.3000000000000003
aF0.0
aa(lp243
F3.3
aF-2.3000000000000003
aF0.0
aa(lp244
F3.3
aF-2.6
aF0.0
aa(lp245
F2.6499999999999995
aF-2.6
aF0.0
aaa.