(lp0
(lp1
(lp2
F-0.15
aF0.15
aF0.0
aa(lp3
F0.15
aF0.15
aF0.0
aa(lp4
F0.15
aF-0.15
aF0.0
aa(lp5
F-0.15
aF-0.15
aF0.0
aaa(lp6
(lp7
F0.5499999999999999
aF0.15
aF0.0
aa(lp8
F0.85
aF0.15
aF0.0
aa(lp9
F0.85
aF-0.15
aF0.0
aa(lp10
F0.5499999999999999
aF-0.15
aF0.0
aaa(lp11
(lp12
F1.25
aF0.15
aF0.0
aa(lp13
F1.5499999999999998
aF0.15
aF0.0
aa(lp14
F1.5499999999999998
aF-0.15
aF0.0
aa(lp15
F1.25
aF-0.15
aF0.0
aaa(lp16
(lp17
F1.6
aF0.15000000000000002
aF0.0
aa(lp18
F1.9
aF0.15000000000000002
aF0.0
aa(lp19
F1.9
aF-0.5
aF0.0
aa(lp20
F1.6
aF-0.5
aF0.0
aaa(lp21
(lp22
F1.9499999999999997
aF0.15
aF0.0
aa(lp23
F2.2499999999999996
aF0.15
aF0.0
aa(lp24
F2.2499999999999996
aF-0.15
aF0.0
aa(lp25
F1.9499999999999997
aF-0.15
aF0.0
aaa(lp26
(lp27
F2.3000000000000003
aF0.15
aF0.0
aa(lp28
F2.6
aF0.15
aF0.0
aa(lp29
F2.6
aF-0.15
aF0.0
aa(lp30
F2.3000000000000003
aF-0.15
aF0.0
aaa(lp31
(lp32
F2.65
aF0.15
aF0.0
aa(lp33
F2.9499999999999997
aF0.15
aF0.0
aa(lp34
F2.9499999999999997
aF-0.15
aF0.0
aa(lp35
F2.65
aF-0.15
aF0.0
aaa(lp36
(lp37
F3.0
aF0.15
aF0.0
aa(lp38
F3.3
aF0.15
aF0.0
aa(lp39
F3.3
aF-0.15
aF0.0
aa(lp40
F3.0
aF-0.15
aF0.0
aaa(lp41
(lp42
F-0.15
aF-0.19999999999999998
aF0.0
aa(lp43
F0.15
aF-0.19999999999999998
aF0.0
aa(lp44
F0.15
aF-0.5
aF0.0
aa(lp45
F-0.15
aF-0.5
aF0.0
aaa(lp46
(lp47
F0.19999999999999998
aF-0.19999999999999998
aF0.0
aa(lp48
F0.5
aF-0.19999999999999998
aF0.0
aa(lp49
F0.5
aF-0.5
aF0.0
aa(lp50
F0.19999999999999998
aF-0.5
aF0.0
aaa(lp51
(lp52
F0.55
aF-0.19999999999999998
aF0.0
aa(lp53
F1.2
aF-0.19999999999999998
aF0.0
aa(lp54
F1.2
aF-0.5
aF0.0
aa(lp55
F0.55
aF-0.5
aF0.0
aaa(lp56
(lp57
F1.25
aF-0.1999999999999999
aF0.0
aa(lp58
F1.5499999999999998
aF-0.1999999999999999
aF0.0
aa(lp59
F1.5499999999999998
aF-0.8499999999999999
aF0.0
aa(lp60
F1.25
aF-0.8499999999999999
aF0.0
aaa(lp61
(lp62
F1.9499999999999997
aF-0.1999999999999999
aF0.0
aa(lp63
F2.2499999999999996
aF-0.1999999999999999
aF0.0
aa(lp64
F2.2499999999999996
aF-0.8499999999999999
aF0.0
aa(lp65
F1.9499999999999997
aF-0.8499999999999999
aF0.0
aaa(lp66
(lp67
F2.65
aF-0.19999999999999998
aF0.0
aa(lp68
F2.9499999999999997
aF-0.19999999999999998
aF0.0
aa(lp69
F2.9499999999999997
aF-0.5
aF0.0
aa(lp70
F2.65
aF-0.5
aF0.0
aaa(lp71
(lp72
F3.0
aF-0.1999999999999999
aF0.0
aa(lp73
F3.3
aF-0.1999999999999999
aF0.0
aa(lp74
F3.3
aF-0.8499999999999999
aF0.0
aa(lp75
F3.0
aF-0.8499999999999999
aF0.0
aaa(lp76
(lp77
F-0.15
aF-0.55
aF0.0
aa(lp78
F0.15
aF-0.55
aF0.0
aa(lp79
F0.15
aF-1.2
aF0.0
aa(lp80
F-0.15
aF-1.2
aF0.0
aaa(lp81
(lp82
F0.19999999999999998
aF-0.5499999999999999
aF0.0
aa(lp83
F0.5
aF-0.5499999999999999
aF0.0
aa(lp84
F0.5
aF-0.85
aF0.0
aa(lp85
F0.19999999999999998
aF-0.85
aF0.0
aaa(lp86
(lp87
F0.5499999999999999
aF-0.5499999999999999
aF0.0
aa(lp88
F0.85
aF-0.5499999999999999
aF0.0
aa(lp89
F0.85
aF-0.85
aF0.0
aa(lp90
F0.5499999999999999
aF-0.85
aF0.0
aaa(lp91
(lp92
F0.8999999999999998
aF-0.5499999999999999
aF0.0
aa(lp93
F1.1999999999999997
aF-0.5499999999999999
aF0.0
aa(lp94
F1.1999999999999997
aF-0.85
aF0.0
aa(lp95
F0.8999999999999998
aF-0.85
aF0.0
aaa(lp96
(lp97
F1.6
aF-0.5499999999999999
aF0.0
aa(lp98
F1.9
aF-0.5499999999999999
aF0.0
aa(lp99
F1.9
aF-0.85
aF0.0
aa(lp100
F1.6
aF-0.85
aF0.0
aaa(lp101
(lp102
F2.3
aF-0.5499999999999999
aF0.0
aa(lp103
F2.95
aF-0.5499999999999999
aF0.0
aa(lp104
F2.95
aF-0.85
aF0.0
aa(lp105
F2.3
aF-0.85
aF0.0
aaa(lp106
(lp107
F0.19999999999999998
aF-0.8999999999999999
aF0.0
aa(lp108
F0.5
aF-0.8999999999999999
aF0.0
aa(lp109
F0.5
aF-1.5499999999999998
aF0.0
aa(lp110
F0.19999999999999998
aF-1.5499999999999998
aF0.0
aaa(lp111
(lp112
F0.5499999999999999
aF-0.8999999999999999
aF0.0
aa(lp113
F0.85
aF-0.8999999999999999
aF0.0
aa(lp114
F0.85
aF-1.5499999999999998
aF0.0
aa(lp115
F0.5499999999999999
aF-1.5499999999999998
aF0.0
aaa(lp116
(lp117
F0.8999999999999998
aF-0.8999999999999999
aF0.0
aa(lp118
F1.1999999999999997
aF-0.8999999999999999
aF0.0
aa(lp119
F1.1999999999999997
aF-1.5499999999999998
aF0.0
aa(lp120
F0.8999999999999998
aF-1.5499999999999998
aF0.0
aaa(lp121
(lp122
F1.25
aF-0.8999999999999998
aF0.0
aa(lp123
F1.9
aF-0.8999999999999998
aF0.0
aa(lp124
F1.9
aF-1.1999999999999997
aF0.0
aa(lp125
F1.25
aF-1.1999999999999997
aF0.0
aaa(lp126
(lp127
F1.9499999999999997
aF-0.8999999999999999
aF0.0
aa(lp128
F2.2499999999999996
aF-0.8999999999999999
aF0.0
aa(lp129
F2.2499999999999996
aF-1.5499999999999998
aF0.0
aa(lp130
F1.9499999999999997
aF-1.5499999999999998
aF0.0
aaa(lp131
(lp132
F2.3
aF-0.8999999999999998
aF0.0
aa(lp133
F2.95
aF-0.8999999999999998
aF0.0
aa(lp134
F2.95
aF-1.1999999999999997
aF0.0
aa(lp135
F2.3
aF-1.1999999999999997
aF0.0
aaa(lp136
(lp137
F3.0
aF-0.8999999999999999
aF0.0
aa(lp138
F3.3
aF-0.8999999999999999
aF0.0
aa(lp139
F3.3
aF-1.5499999999999998
aF0.0
aa(lp140
F3.0
aF-1.5499999999999998
aF0.0
aaa(lp141
(lp142
F-0.15
aF-1.25
aF0.0
aa(lp143
F0.15
aF-1.25
aF0.0
aa(lp144
F0.15
aF-1.5499999999999998
aF0.0
aa(lp145
F-0.15
aF-1.5499999999999998
aF0.0
aaa(lp146
(lp147
F1.25
aF-1.25
aF0.0
aa(lp148
F1.5499999999999998
aF-1.25
aF0.0
aa(lp149
F1.5499999999999998
aF-1.5499999999999998
aF0.0
aa(lp150
F1.25
aF-1.5499999999999998
aF0.0
aaa(lp151
(lp152
F1.6
aF-1.25
aF0.0
aa(lp153
F1.9
aF-1.25
aF0.0
aa(lp154
F1.9
aF-1.5499999999999998
aF0.0
aa(lp155
F1.6
aF-1.5499999999999998
aF0.0
aaa(lp156
(lp157
F2.3000000000000003
aF-1.25
aF0.0
aa(lp158
F2.6
aF-1.25
aF0.0
aa(lp159
F2.6
aF-1.5499999999999998
aF0.0
aa(lp160
F2.3000000000000003
aF-1.5499999999999998
aF0.0
aaa(lp161
(lp162
F2.65
aF-1.25
aF0.0
aa(lp163
F2.9499999999999997
aF-1.25
aF0.0
aa(lp164
F2.9499999999999997
aF-1.5499999999999998
aF0.0
aa(lp165
F2.65
aF-1.5499999999999998
aF0.0
aaa.