(lp1
((lp2
(lp3
F0.2494953845445069
aF0.39500000022109466
aF0.19550029327049034
aa(lp4
F0.24949538454074094
aF0.29500000022109468
aF0.19550029327049645
aa(lp5
F0.069495384540740932
aF0.29500000022787343
aF0.1955002932697098
aa(lp6
F0.069495384544506905
aF0.3950000002278734
aF0.1955002932697037
aa(lp7
F0.2494953845576855
aF0.20500000022256845
aF0.19550029319128362
aa(lp8
F0.24949538455391951
aF0.10500000022256845
aF0.19550029319129003
aa(lp9
F0.069495384553919487
aF0.10500000022934725
aF0.19550029319128517
aa(lp10
F0.069495384557685488
aF0.20500000022934725
aF0.19550029319127876
aa(lp11
(lp12
F-4.3700022871036854e-12
aF6.1171553933370149e-14
aF1
aa(lp13
F-4.3700022871036854e-12
aF6.1171553933370149e-14
aF1
aa(lp14
F-4.3700022871036854e-12
aF6.1171553933370149e-14
aF1
aa(lp15
F-4.3700022871036854e-12
aF6.1171553933370149e-14
aF1
aa(lp16
F-2.7082903799553452e-14
aF6.4137931077288393e-14
aF1
aa(lp17
F-2.7082903799553452e-14
aF6.4137931077288393e-14
aF1
aa(lp18
F-2.7082903799553452e-14
aF6.4137931077288393e-14
aF1
aa(lp19
F-2.7082903799553452e-14
aF6.4137931077288393e-14
aF1
aatp20
a((lp21
(lp22
F0.24949836705076461
aF0.39500314859632168
aF0.17042994194036742
aa(lp23
F0.24949992444401684
aF0.29500314860844967
aF0.17042995306206682
aa(lp24
F0.069499924466084301
aF0.2950003453006283
aF0.17043024588755845
aa(lp25
F0.069498367072832093
aF0.39500034528850031
aF0.17043023476585906
aa(lp26
F0.5523777162956417
aF0.17336383235700861
aF0.13310871739011698
aa(lp27
F0.55710094442686575
aF0.07348023431889153
aF0.13212996360071597
aa(lp28
F0.38347056140721181
aF0.064812477820327202
aF0.17879215482369507
aa(lp29
F0.37874733327598775
aF0.16469607585844429
aF0.17977090861309608
aa(lp30
(lp31
F1.6268065547688885e-06
aF1.1124232978006188e-07
aF0.99999999999867062
aa(lp32
F1.6268065547688885e-06
aF1.1124232978006188e-07
aF0.99999999999867062
aa(lp33
F1.6268065547688885e-06
aF1.1124232978006188e-07
aF0.99999999999867062
aa(lp34
F1.6268065547688885e-06
aF1.1124232978006188e-07
aF0.99999999999867062
aa(lp35
F0.25940395284513185
aF0.0028030432729607173
aF0.96576484311489119
aa(lp36
F0.25940395284513185
aF0.0028030432729607173
aF0.96576484311489119
aa(lp37
F0.25940395284513185
aF0.0028030432729607173
aF0.96576484311489119
aa(lp38
F0.25940395284513185
aF0.0028030432729607173
aF0.96576484311489119
aatp39
a((lp40
(lp41
F0.84303460239162797
aF0.42436182064878464
aF0.17450884517541554
aa(lp42
F0.84703554112109558
aF0.32444503558371607
aF0.17530165760212524
aa(lp43
F0.67332453362244027
aF0.31711948083438851
aF0.12870957542696693
aa(lp44
F0.66932359489297266
aF0.41703626589945708
aF0.12791676300025728
aa(lp45
F0.55277659098086351
aF0.17342842975907946
aF0.13252471108191005
aa(lp46
F0.55748464107180784
aF0.073544065940512937
aF0.13155099197385306
aa(lp47
F0.38382117749991984
aF0.064904703058625418
aF0.17809519493416381
aa(lp48
F0.37911312740897551
aF0.16478906687719194
aF0.17906891404222081
aa(lp49
(lp50
F-0.25895215840372821
aF-0.0027051011477743081
aF0.96588636085505974
aa(lp51
F-0.25895215840372821
aF-0.0027051011477743081
aF0.96588636085505974
aa(lp52
F-0.25895215840372821
aF-0.0027051011477743081
aF0.96588636085505974
aa(lp53
F-0.25895215840372821
aF-0.0027051011477743081
aF0.96588636085505974
aa(lp54
F0.25874724526957865
aF0.0027796114516064922
aF0.96594106281158909
aa(lp55
F0.25874724526957865
aF0.0027796114516064922
aF0.96594106281158909
aa(lp56
F0.25874724526957865
aF0.0027796114516064922
aF0.96594106281158909
aa(lp57
F0.25874724526957865
aF0.0027796114516064922
aF0.96594106281158909
aatp58
a((lp59
(lp60
F0.84308085403918775
aF0.42441264566343562
aF0.17453445668122736
aa(lp61
F0.84708170827390228
aF0.32449585586978846
aF0.17532709955459616
aa(lp62
F0.67336416622193784
aF0.31717045890446749
aF0.12875936241047009
aa(lp63
F0.66936331198722332
aF0.41708724869811464
aF0.12796671953710129
aa(lp64
F1.1494662308833634
aF0.20500157853856099
aF0.17040035965686573
aa(lp65
F1.1494665112800571
aF0.10500157853899114
aF0.17040044571814772
aa(lp66
F0.96946651147022966
aF0.10500107381783562
aF0.17039218694020186
aa(lp67
F0.96946623107353613
aF0.20500107381740548
aF0.17039210087891993
aa(lp68
(lp69
F-0.25881695706081204
aF-0.0027008198148617268
aF0.96592260989693646
aa(lp70
F-0.25881695706081204
aF-0.0027008198148617268
aF0.96592260989693646
aa(lp71
F-0.25881695706081204
aF-0.0027008198148617268
aF0.96592260989693646
aa(lp72
F-0.25881695706081204
aF-0.0027008198148617268
aF0.96592260989693646
aa(lp73
F-4.5882102111916015e-05
aF8.6048416695141971e-07
aF0.99999999894704594
aa(lp74
F-4.5882102111916015e-05
aF8.6048416695141971e-07
aF0.99999999894704594
aa(lp75
F-4.5882102111916015e-05
aF8.6048416695141971e-07
aF0.99999999894704594
aa(lp76
F-4.5882102111916015e-05
aF8.6048416695141971e-07
aF0.99999999894704594
aatp77
a((lp78
(lp79
F1.1494903513747037
aF0.39500000040195238
aF0.17050029673695993
aa(lp80
F1.1494903513659691
aF0.29500000040195234
aF0.17050029673696035
aa(lp81
F0.96949035136596906
aF0.29500000041767471
aF0.17050029673838088
aa(lp82
F0.96949035137470363
aF0.39500000041767469
aF0.17050029673838046
aa(lp83
F1.1494887878169913
aF0.20500025034707856
aF0.170501693918023
aa(lp84
F1.1494888872208215
aF0.1050002503471332
aF0.17050172627639376
aa(lp85
F0.96948888722092907
aF0.10500007142026535
aF0.17050180838432755
aa(lp86
F0.96948878781709891
aF0.20500007142021071
aF0.17050177602595684
aa(lp87
(lp88
F7.8918313175197341e-12
aF4.2054033866367746e-15
aF0.99999999999999989
aa(lp89
F7.8918313175197341e-12
aF4.2054033866367746e-15
aF0.99999999999999989
aa(lp90
F7.8918313175197341e-12
aF4.2054033866367746e-15
aF0.99999999999999989
aa(lp91
F7.8918313175197341e-12
aF4.2054033866367746e-15
aF0.99999999999999989
aa(lp92
F4.5615486613770648e-07
aF3.2358416076228724e-07
aF0.99999999999984357
aa(lp93
F4.5615486613770648e-07
aF3.2358416076228724e-07
aF0.99999999999984357
aa(lp94
F4.5615486613770648e-07
aF3.2358416076228724e-07
aF0.99999999999984357
aa(lp95
F4.5615486613770648e-07
aF3.2358416076228724e-07
aF0.99999999999984357
aatp96
a.