(lp1
(dp2
S'hrp2_lleg_rom'
p3
((lp4
(lp5
F0.099495351374984622
aF0.14500000000000002
aF0.011000148822384953
aa(lp6
F0.099495351374984622
aF0.044999999999999998
aF0.011000148822384953
aa(lp7
F-0.080504648625015371
aF0.044999999999999998
aF0.011000148822384953
aa(lp8
F-0.080504648625015371
aF0.14500000000000002
aF0.011000148822384953
aa(lp9
(lp10
F-5.5511151231257827e-17
aF0
aF1
aa(lp11
F-5.5511151231257827e-17
aF0
aF1
aa(lp12
F-5.5511151231257827e-17
aF0
aF1
aa(lp13
F-5.5511151231257827e-17
aF0
aF1
aatp14
sS'hrp2_rleg_rom'
p15
((lp16
(lp17
F0.099495351374984622
aF-0.044999999999999998
aF0.011000148822384953
aa(lp18
F0.099495351374984622
aF-0.14500000000000002
aF0.011000148822384953
aa(lp19
F-0.080504648625015371
aF-0.14500000000000002
aF0.011000148822384953
aa(lp20
F-0.080504648625015371
aF-0.044999999999999998
aF0.011000148822384953
aa(lp21
(lp22
F0
aF0
aF1
aa(lp23
F0
aF0
aF1
aa(lp24
F0
aF0
aF1
aa(lp25
F0
aF0
aF1
aatp26
sa(dp27
g3
((lp28
(lp29
F0.099513071734534386
aF0.14500000000000002
aF0.011000171396975483
aa(lp30
F0.099513071734534386
aF0.044999999999999998
aF0.011000171396975483
aa(lp31
F-0.080486928265465607
aF0.044999999999999998
aF0.011000171396975483
aa(lp32
F-0.080486928265465607
aF0.14500000000000002
aF0.011000171396975483
aa(lp33
(lp34
F-5.5511151231257827e-17
aF4.1208104772450352e-20
aF1
aa(lp35
F-5.5511151231257827e-17
aF4.1208104772450352e-20
aF1
aa(lp36
F-5.5511151231257827e-17
aF4.1208104772450352e-20
aF1
aa(lp37
F-5.5511151231257827e-17
aF4.1208104772450352e-20
aF1
aatp38
sg15
((lp39
(lp40
F0.273262580654414
aF-0.010565974777466181
aF0.010996101994008994
aa(lp41
F0.26562901160800545
aF-0.11027419221011947
aF0.010995973730669323
aa(lp42
F0.086154220244661614
aF-0.096533767930839384
aF0.010998363195871275
aa(lp43
F0.093787789291070123
aF0.0031744495018139057
aF0.010998491459210946
aa(lp44
(lp45
F1.3138162400072606e-05
aF-2.2922324295946612e-06
aF0.99999999991106725
aa(lp46
F1.3138162400072606e-05
aF-2.2922324295946612e-06
aF0.99999999991106725
aa(lp47
F1.3138162400072606e-05
aF-2.2922324295946612e-06
aF0.99999999991106725
aa(lp48
F1.3138162400072606e-05
aF-2.2922324295946612e-06
aF0.99999999991106725
aatp49
sa(dp50
g3
((lp51
(lp52
F0.45366151522969483
aF0.15717087573388014
aF0.01099722101160798
aa(lp53
F0.46748025466506604
aF0.058130265682016465
aF0.010996235112232675
aa(lp54
F0.28920715668911201
aF0.033256534784623183
aF0.010989213717931198
aa(lp55
F0.27538841725374086
aF0.13229714483648686
aF0.010990199617306504
aa(lp56
(lp57
F-3.727112107105874e-05
aF-1.5154786347493926e-05
aF0.99999999919059823
aa(lp58
F-3.727112107105874e-05
aF-1.5154786347493926e-05
aF0.99999999919059823
aa(lp59
F-3.727112107105874e-05
aF-1.5154786347493926e-05
aF0.99999999919059823
aa(lp60
F-3.727112107105874e-05
aF-1.5154786347493926e-05
aF0.99999999919059823
aatp61
sg15
((lp62
(lp63
F0.27328816958646968
aF-0.010565977552292521
aF0.010996149120985593
aa(lp64
F0.26565460054006118
aF-0.1102741949849458
aF0.010996020857645922
aa(lp65
F0.08617980917671729
aF-0.096533770705665795
aF0.010998410322846625
aa(lp66
F0.093813378223125757
aF0.0031744467269874815
aF0.010998538586186296
aa(lp67
(lp68
F1.3138162393003608e-05
aF-2.2922324290534275e-06
aF0.99999999991106703
aa(lp69
F1.3138162393003608e-05
aF-2.2922324290534275e-06
aF0.99999999991106703
aa(lp70
F1.3138162393003608e-05
aF-2.2922324290534275e-06
aF0.99999999991106703
aa(lp71
F1.3138162393003608e-05
aF-2.2922324290534275e-06
aF0.99999999991106703
aatp72
sa(dp73
g3
((lp74
(lp75
F0.45368710771569559
aF0.15717087488150439
aF0.010997265633715309
aa(lp76
F0.46750584715106674
aF0.05813026482964069
aF0.010996279734340003
aa(lp77
F0.28923274917511271
aF0.033256533932247534
aF0.010989258340050517
aa(lp78
F0.27541400973974156
aF0.13229714398411124
aF0.010990244239425823
aa(lp79
(lp80
F-3.7271121005236392e-05
aF-1.5154786338299892e-05
aF0.99999999919059801
aa(lp81
F-3.7271121005236392e-05
aF-1.5154786338299892e-05
aF0.99999999919059801
aa(lp82
F-3.7271121005236392e-05
aF-1.5154786338299892e-05
aF0.99999999919059801
aa(lp83
F-3.7271121005236392e-05
aF-1.5154786338299892e-05
aF0.99999999919059801
aatp84
sg15
((lp85
(lp86
F0.58465758065440965
aF-0.010565974777466201
aF0.010996101994009036
aa(lp87
F0.5770240116080011
aF-0.11027419221011947
aF0.010995973730669364
aa(lp88
F0.39754922024465716
aF-0.09653376793083937
aF0.010998363195871344
aa(lp89
F0.40518278929106571
aF0.0031744495018138988
aF0.010998491459211016
aa(lp90
(lp91
F1.3138162400016227e-05
aF-2.292232429608539e-06
aF0.99999999991106725
aa(lp92
F1.3138162400016227e-05
aF-2.292232429608539e-06
aF0.99999999991106725
aa(lp93
F1.3138162400016227e-05
aF-2.292232429608539e-06
aF0.99999999991106725
aa(lp94
F1.3138162400016227e-05
aF-2.292232429608539e-06
aF0.99999999991106725
aatp95
sa(dp96
g3
((lp97
(lp98
F0.76566151522968773
aF0.15717087573388017
aF0.010997221011607994
aa(lp99
F0.77948025466505899
aF0.058130265682016499
aF0.010996235112232688
aa(lp100
F0.60120715668910507
aF0.033256534784623218
aF0.010989213717931184
aa(lp101
F0.58738841725373381
aF0.13229714483648689
aF0.01099019961730649
aa(lp102
(lp103
F-3.7271121071190579e-05
aF-1.5154786347542498e-05
aF0.99999999919059812
aa(lp104
F-3.7271121071190579e-05
aF-1.5154786347542498e-05
aF0.99999999919059812
aa(lp105
F-3.7271121071190579e-05
aF-1.5154786347542498e-05
aF0.99999999919059812
aa(lp106
F-3.7271121071190579e-05
aF-1.5154786347542498e-05
aF0.99999999919059812
aatp107
sg15
((lp108
(lp109
F0.58468316955323529
aF-0.01056597754835982
aF0.010996149163471622
aa(lp110
F0.57704960050682674
aF-0.11027419498101311
aF0.01099602090013195
aa(lp111
F0.39757480914348281
aF-0.096533770701733107
aF0.010998410365332681
aa(lp112
F0.40520837818989131
aF0.0031744467309201829
aF0.010998538628672352
aa(lp113
(lp114
F1.3138162393109426e-05
aF-2.2922324290673053e-06
aF0.99999999991106736
aa(lp115
F1.3138162393109426e-05
aF-2.2922324290673053e-06
aF0.99999999991106736
aa(lp116
F1.3138162393109426e-05
aF-2.2922324290673053e-06
aF0.99999999991106736
aa(lp117
F1.3138162393109426e-05
aF-2.2922324290673053e-06
aF0.99999999991106736
aatp118
sa(dp119
g3
((lp120
(lp121
F0.76568710771568849
aF0.15717087488150441
aF0.010997265633715364
aa(lp122
F0.77950584715105964
aF0.058130264829640711
aF0.010996279734340059
aa(lp123
F0.60123274917510572
aF0.033256533932247555
aF0.010989258340050573
aa(lp124
F0.58741400973973457
aF0.13229714398411124
aF0.010990244239425878
aa(lp125
(lp126
F-3.7271121005204733e-05
aF-1.5154786338322443e-05
aF0.99999999919059801
aa(lp127
F-3.7271121005204733e-05
aF-1.5154786338322443e-05
aF0.99999999919059801
aa(lp128
F-3.7271121005204733e-05
aF-1.5154786338322443e-05
aF0.99999999919059801
aa(lp129
F-3.7271121005204733e-05
aF-1.5154786338322443e-05
aF0.99999999919059801
aatp130
sg15
((lp131
(lp132
F0.89665758065440415
aF-0.010565974777466187
aF0.010996101994008994
aa(lp133
F0.88902401160799571
aF-0.11027419221011947
aF0.010995973730669323
aa(lp134
F0.70954922024465183
aF-0.09653376793083937
aF0.010998363195871275
aa(lp135
F0.71718278929106027
aF0.0031744495018139127
aF0.010998491459210946
aa(lp136
(lp137
F1.3138162400141127e-05
aF-2.292232429608539e-06
aF0.99999999991106725
aa(lp138
F1.3138162400141127e-05
aF-2.292232429608539e-06
aF0.99999999991106725
aa(lp139
F1.3138162400141127e-05
aF-2.292232429608539e-06
aF0.99999999991106725
aa(lp140
F1.3138162400141127e-05
aF-2.292232429608539e-06
aF0.99999999991106725
aatp141
sa(dp142
g3
((lp143
(lp144
F1.0776615152296825
aF0.15717087573388011
aF0.010997221011608091
aa(lp145
F1.0914802546650537
aF0.058130265682016458
aF0.010996235112232786
aa(lp146
F0.91320715668909969
aF0.03325653478462319
aF0.010989213717931309
aa(lp147
F0.89938841725372853
aF0.13229714483648686
aF0.010990199617306615
aa(lp148
(lp149
F-3.7271121071135067e-05
aF-1.5154786347511273e-05
aF0.99999999919059812
aa(lp150
F-3.7271121071135067e-05
aF-1.5154786347511273e-05
aF0.99999999919059812
aa(lp151
F-3.7271121071135067e-05
aF-1.5154786347511273e-05
aF0.99999999919059812
aa(lp152
F-3.7271121071135067e-05
aF-1.5154786347511273e-05
aF0.99999999919059812
aatp153
sg15
((lp154
(lp155
F0.8966831695532298
aF-0.010565977548359827
aF0.010996149163471552
aa(lp156
F0.88904960050682136
aF-0.11027419498101312
aF0.010996020900131881
aa(lp157
F0.70957480914347748
aF-0.096533770701733107
aF0.010998410365332612
aa(lp158
F0.71720837818988592
aF0.003174446730920176
aF0.010998538628672283
aa(lp159
(lp160
F1.3138162393124171e-05
aF-2.2922324290395497e-06
aF0.99999999991106714
aa(lp161
F1.3138162393124171e-05
aF-2.2922324290395497e-06
aF0.99999999991106714
aa(lp162
F1.3138162393124171e-05
aF-2.2922324290395497e-06
aF0.99999999991106714
aa(lp163
F1.3138162393124171e-05
aF-2.2922324290395497e-06
aF0.99999999991106714
aatp164
sa(dp165
g3
((lp166
(lp167
F1.0776871077156833
aF0.15717087488150439
aF0.010997265633715447
aa(lp168
F1.0915058471510544
aF0.05813026482964069
aF0.010996279734340142
aa(lp169
F0.91323274917510033
aF0.033256533932247534
aF0.010989258340050656
aa(lp170
F0.89941400973972918
aF0.13229714398411124
aF0.010990244239425961
aa(lp171
(lp172
F-3.7271121005094795e-05
aF-1.5154786338303361e-05
aF0.99999999919059801
aa(lp173
F-3.7271121005094795e-05
aF-1.5154786338303361e-05
aF0.99999999919059801
aa(lp174
F-3.7271121005094795e-05
aF-1.5154786338303361e-05
aF0.99999999919059801
aa(lp175
F-3.7271121005094795e-05
aF-1.5154786338303361e-05
aF0.99999999919059801
aatp176
sg15
((lp177
(lp178
F1.2086575806543973
aF-0.010565974777466187
aF0.01099610199400898
aa(lp179
F1.2010240116079889
aF-0.11027419221011947
aF0.010995973730669309
aa(lp180
F1.021549220244645
aF-0.09653376793083937
aF0.010998363195871289
aa(lp181
F1.0291827892910534
aF0.0031744495018139127
aF0.01099849145921096
aa(lp182
(lp183
F1.3138162400081279e-05
aF-2.292232429608539e-06
aF0.99999999991106725
aa(lp184
F1.3138162400081279e-05
aF-2.292232429608539e-06
aF0.99999999991106725
aa(lp185
F1.3138162400081279e-05
aF-2.292232429608539e-06
aF0.99999999991106725
aa(lp186
F1.3138162400081279e-05
aF-2.292232429608539e-06
aF0.99999999991106725
aatp187
sa(dp188
g3
((lp189
(lp190
F1.3896615152296758
aF0.15717087573388014
aF0.010997221011608077
aa(lp191
F1.4034802546650471
aF0.058130265682016471
aF0.010996235112232772
aa(lp192
F1.2252071566890932
aF0.03325653478462319
aF0.010989213717931268
aa(lp193
F1.2113884172537219
aF0.13229714483648686
aF0.010990199617306573
aa(lp194
(lp195
F-3.7271121071306805e-05
aF-1.5154786347518212e-05
aF0.9999999991905979
aa(lp196
F-3.7271121071306805e-05
aF-1.5154786347518212e-05
aF0.9999999991905979
aa(lp197
F-3.7271121071306805e-05
aF-1.5154786347518212e-05
aF0.9999999991905979
aa(lp198
F-3.7271121071306805e-05
aF-1.5154786347518212e-05
aF0.9999999991905979
aatp199
sg15
((lp200
(lp201
F1.208683169553223
aF-0.01056597754835982
aF0.010996149163471594
aa(lp202
F1.2010496005068145
aF-0.11027419498101311
aF0.010996020900131923
aa(lp203
F1.0215748091434707
aF-0.096533770701733107
aF0.010998410365332625
aa(lp204
F1.0292083781898791
aF0.0031744467309201829
aF0.010998538628672297
aa(lp205
(lp206
F1.3138162393008812e-05
aF-2.2922324290811831e-06
aF0.99999999991106714
aa(lp207
F1.3138162393008812e-05
aF-2.2922324290811831e-06
aF0.99999999991106714
aa(lp208
F1.3138162393008812e-05
aF-2.2922324290811831e-06
aF0.99999999991106714
aa(lp209
F1.3138162393008812e-05
aF-2.2922324290811831e-06
aF0.99999999991106714
aatp210
sa(dp211
g3
((lp212
(lp213
F1.3896560320067486
aF0.15717102623370524
aF0.010993294375877191
aa(lp214
F1.4034739610297478
aF0.058130303111699429
aF0.010992301633535692
aa(lp215
F1.2252006595386851
aF0.033258030961598205
aF0.010984982618874276
aa(lp216
F1.2113827305156859
aF0.132298754083604
aF0.010985975361215775
aa(lp217
(lp218
F-3.8899374828479461e-05
aF-1.5450726658676125e-05
aF0.99999999912405679
aa(lp219
F-3.8899374828479461e-05
aF-1.5450726658676125e-05
aF0.99999999912405679
aa(lp220
F-3.8899374828479461e-05
aF-1.5450726658676125e-05
aF0.99999999912405679
aa(lp221
F-3.8899374828479461e-05
aF-1.5450726658676125e-05
aF0.99999999912405679
aatp222
sg15
((lp223
(lp224
F1.5994829086566245
aF-0.045001719588529325
aF0.011996772565149777
aa(lp225
F1.599482094114502
aF-0.14500171958520885
aF0.011996747640662747
aa(lp226
F1.4194820941207196
aF-0.14500025340931422
aF0.011996449953608795
aa(lp227
F1.419482908662842
aF-0.045000253412634701
aF0.011996474878095825
aa(lp228
(lp229
F-1.6538189964745458e-06
aF-2.4923139929643237e-07
aF0.99999999999860145
aa(lp230
F-1.6538189964745458e-06
aF-2.4923139929643237e-07
aF0.99999999999860145
aa(lp231
F-1.6538189964745458e-06
aF-2.4923139929643237e-07
aF0.99999999999860145
aa(lp232
F-1.6538189964745458e-06
aF-2.4923139929643237e-07
aF0.99999999999860145
aatp233
sa(dp234
g3
((lp235
(lp236
F1.5994903513749847
aF0.14500000000000002
aF0.011000148822384953
aa(lp237
F1.5994903513749847
aF0.044999999999999998
aF0.011000148822384953
aa(lp238
F1.4194903513749846
aF0.044999999999999998
aF0.011000148822384953
aa(lp239
F1.4194903513749846
aF0.14500000000000002
aF0.011000148822384953
aa(lp240
(lp241
F-5.5511151231257827e-17
aF0
aF1
aa(lp242
F-5.5511151231257827e-17
aF0
aF1
aa(lp243
F-5.5511151231257827e-17
aF0
aF1
aa(lp244
F-5.5511151231257827e-17
aF0
aF1
aatp245
sg15
((lp246
(lp247
F1.5994903513749847
aF-0.044999999999999998
aF0.011000148822384953
aa(lp248
F1.5994903513749847
aF-0.14500000000000002
aF0.011000148822384953
aa(lp249
F1.4194903513749846
aF-0.14500000000000002
aF0.011000148822384953
aa(lp250
F1.4194903513749846
aF-0.044999999999999998
aF0.011000148822384953
aa(lp251
(lp252
F0
aF0
aF1
aa(lp253
F0
aF0
aF1
aa(lp254
F0
aF0
aF1
aa(lp255
F0
aF0
aF1
aatp256
sa.